target datalayout = "e-m:e-p270:32:32-p271:32:32-p272:64:64-i64:64-i128:128-f80:128-n8:16:32:64-S128"
target triple = "x86_64-unknown-linux-gnu"

%"class.Imf_3_2::RleCompressor" = type { %"class.Imf_3_2::Compressor", i32, ptr, ptr }
%"class.Imf_3_2::Compressor" = type { ptr, ptr }

@.str = private unnamed_addr constant [42 x i8] c"ScanLine size too large for RleCompressor\00", align 1
@_ZTIN7Iex_3_211OverflowExcE = external constant ptr
@.str.2 = private unnamed_addr constant [33 x i8] c"Integer multiplication overflow.\00", align 1

; Function Attrs: mustprogress nounwind uwtable
define linkonce_odr hidden noundef i64 @_ZNSt14numeric_limitsImE3maxEv() #5 comdat align 2 {
entry:
  ret i64 -1
}

; Function Attrs: mustprogress uwtable
define linkonce_odr hidden noundef i64 @_ZN7Imf_3_26uiMultImEET_S1_S1_(i64 noundef %a, i64 noundef %b) #4 comdat personality ptr @__gxx_personality_v0 {
entry:
  %a.addr = alloca i64, align 8
  %b.addr = alloca i64, align 8
  %exn.slot = alloca ptr, align 8
  %ehselector.slot = alloca i32, align 4
  store i64 %a, ptr %a.addr, align 8
  store i64 %b, ptr %b.addr, align 8
  br label %do.body

do.body:                                          ; preds = %entry
  br label %do.end

do.end:                                           ; preds = %do.body
  %0 = load i64, ptr %a.addr, align 8
  %cmp = icmp ugt i64 %0, 0
  br i1 %cmp, label %land.lhs.true, label %if.end

land.lhs.true:                                    ; preds = %do.end
  %1 = load i64, ptr %b.addr, align 8
  %call = call noundef i64 @_ZNSt14numeric_limitsImE3maxEv() #3
  %2 = load i64, ptr %a.addr, align 8
  %div = udiv i64 %call, %2
  %cmp1 = icmp ugt i64 %1, %div
  br i1 %cmp1, label %if.then, label %if.end

if.then:                                          ; preds = %land.lhs.true
  %exception = call ptr @__cxa_allocate_exception(i64 72) #3
  invoke void @_ZN7Iex_3_211OverflowExcC1EPKc(ptr noundef nonnull align 8 dereferenceable(72) %exception, ptr noundef @.str.2)
          to label %invoke.cont unwind label %lpad

invoke.cont:                                      ; preds = %if.then
  call void @__cxa_throw(ptr %exception, ptr @_ZTIN7Iex_3_211OverflowExcE, ptr @_ZN7Iex_3_211OverflowExcD1Ev) #8
  unreachable

lpad:                                             ; preds = %if.then
  %3 = landingpad { ptr, i32 }
          cleanup
  %4 = extractvalue { ptr, i32 } %3, 0
  store ptr %4, ptr %exn.slot, align 8
  %5 = extractvalue { ptr, i32 } %3, 1
  store i32 %5, ptr %ehselector.slot, align 4
  call void @__cxa_free_exception(ptr %exception) #3
  br label %eh.resume

if.end:                                           ; preds = %land.lhs.true, %do.end
  %6 = load i64, ptr %a.addr, align 8
  %7 = load i64, ptr %b.addr, align 8
  %mul = mul i64 %6, %7
  ret i64 %mul

eh.resume:                                        ; preds = %lpad
  %exn = load ptr, ptr %exn.slot, align 8
  %sel = load i32, ptr %ehselector.slot, align 4
  %lpad.val = insertvalue { ptr, i32 } poison, ptr %exn, 0
  %lpad.val2 = insertvalue { ptr, i32 } %lpad.val, i32 %sel, 1
  resume { ptr, i32 } %lpad.val2
}

; Function Attrs: mustprogress nounwind uwtable
define linkonce_odr hidden noundef i32 @_ZNSt14numeric_limitsIiE3maxEv() #5 comdat align 2 {
entry:
  ret i32 2147483647
}

; Function Attrs: mustprogress uwtable
define hidden void @_ZN7Imf_3_213RleCompressorC2ERKNS_6HeaderEm(ptr noundef nonnull align 8 dereferenceable(40) %this, ptr noundef nonnull align 1 %hdr, i64 noundef %maxScanLineSize) unnamed_addr #4 align 2 personality ptr @__gxx_personality_v0 {
entry:
  %this.addr = alloca ptr, align 8
  %hdr.addr = alloca ptr, align 8
  %maxScanLineSize.addr = alloca i64, align 8
  %exn.slot = alloca ptr, align 8
  %ehselector.slot = alloca i32, align 4
  store ptr %this, ptr %this.addr, align 8
  store ptr %hdr, ptr %hdr.addr, align 8
  store i64 %maxScanLineSize, ptr %maxScanLineSize.addr, align 8
  %this1 = load ptr, ptr %this.addr, align 8
  %0 = load ptr, ptr %hdr.addr, align 8
  call void @_ZN7Imf_3_210CompressorC2ERKNS_6HeaderE(ptr noundef nonnull align 8 dereferenceable(16) %this1, ptr noundef nonnull align 1 %0)
  store ptr getelementptr inbounds ({ [10 x ptr] }, ptr @_ZTVN7Imf_3_213RleCompressorE, i32 0, i32 0, i32 2), ptr %this1, align 8
  %_maxScanLineSize = getelementptr inbounds %"class.Imf_3_2::RleCompressor", ptr %this1, i32 0, i32 1
  %1 = load i64, ptr %maxScanLineSize.addr, align 8
  %conv = trunc i64 %1 to i32
  store i32 %conv, ptr %_maxScanLineSize, align 8
  %_tmpBuffer = getelementptr inbounds %"class.Imf_3_2::RleCompressor", ptr %this1, i32 0, i32 2
  store ptr null, ptr %_tmpBuffer, align 8
  %_outBuffer = getelementptr inbounds %"class.Imf_3_2::RleCompressor", ptr %this1, i32 0, i32 3
  store ptr null, ptr %_outBuffer, align 8
  %2 = load i64, ptr %maxScanLineSize.addr, align 8
  %call = call noundef i32 @_ZNSt14numeric_limitsIiE3maxEv() #3
  %conv2 = sext i32 %call to i64
  %cmp = icmp ugt i64 %2, %conv2
  br i1 %cmp, label %if.then, label %if.end

if.then:                                          ; preds = %entry
  %exception = call ptr @__cxa_allocate_exception(i64 72) #3
  invoke void @_ZN7Iex_3_211OverflowExcC1EPKc(ptr noundef nonnull align 8 dereferenceable(72) %exception, ptr noundef @.str)
          to label %invoke.cont unwind label %lpad

invoke.cont:                                      ; preds = %if.then
  invoke void @__cxa_throw(ptr %exception, ptr @_ZTIN7Iex_3_211OverflowExcE, ptr @_ZN7Iex_3_211OverflowExcD1Ev) #8
          to label %unreachable unwind label %lpad3

lpad:                                             ; preds = %if.then
  %3 = landingpad { ptr, i32 }
          cleanup
  %4 = extractvalue { ptr, i32 } %3, 0
  store ptr %4, ptr %exn.slot, align 8
  %5 = extractvalue { ptr, i32 } %3, 1
  store i32 %5, ptr %ehselector.slot, align 4
  call void @__cxa_free_exception(ptr %exception) #3
  br label %ehcleanup

lpad3:                                            ; preds = %invoke.cont7, %invoke.cont4, %if.end, %invoke.cont
  %6 = landingpad { ptr, i32 }
          cleanup
  %7 = extractvalue { ptr, i32 } %6, 0
  store ptr %7, ptr %exn.slot, align 8
  %8 = extractvalue { ptr, i32 } %6, 1
  store i32 %8, ptr %ehselector.slot, align 4
  br label %ehcleanup

if.end:                                           ; preds = %entry
  %9 = load i64, ptr %maxScanLineSize.addr, align 8
  %call5 = invoke noalias noundef nonnull ptr @_Znam(i64 noundef %9) #9
          to label %invoke.cont4 unwind label %lpad3

invoke.cont4:                                     ; preds = %if.end
  %_tmpBuffer6 = getelementptr inbounds %"class.Imf_3_2::RleCompressor", ptr %this1, i32 0, i32 2
  store ptr %call5, ptr %_tmpBuffer6, align 8
  %10 = load i64, ptr %maxScanLineSize.addr, align 8
  %call8 = invoke noundef i64 @_ZN7Imf_3_26uiMultImEET_S1_S1_(i64 noundef %10, i64 noundef 3)
          to label %invoke.cont7 unwind label %lpad3

invoke.cont7:                                     ; preds = %invoke.cont4
  %div = udiv i64 %call8, 2
  %call10 = invoke noalias noundef nonnull ptr @_Znam(i64 noundef %div) #9
          to label %invoke.cont9 unwind label %lpad3

invoke.cont9:                                     ; preds = %invoke.cont7
  %_outBuffer11 = getelementptr inbounds %"class.Imf_3_2::RleCompressor", ptr %this1, i32 0, i32 3
  store ptr %call10, ptr %_outBuffer11, align 8
  ret void

ehcleanup:                                        ; preds = %lpad3, %lpad
  call void @_ZN7Imf_3_210CompressorD2Ev(ptr noundef nonnull align 8 dereferenceable(16) %this1) #3
  br label %eh.resume

eh.resume:                                        ; preds = %ehcleanup
  %exn = load ptr, ptr %exn.slot, align 8
  %sel = load i32, ptr %ehselector.slot, align 4
  %lpad.val = insertvalue { ptr, i32 } poison, ptr %exn, 0
  %lpad.val12 = insertvalue { ptr, i32 } %lpad.val, i32 %sel, 1
  resume { ptr, i32 } %lpad.val12

unreachable:                                      ; preds = %invoke.cont
  unreachable
}