; Function Attrs: mustprogress uwtable
define hidden void @_ZN7Imf_3_213RleCompressorC2ERKNS_6HeaderEm(ptr noundef nonnull align 8 dereferenceable(40) %this, ptr noundef nonnull align 1 %hdr, i64 noundef %maxScanLineSize) unnamed_addr #3 align 2 personality ptr @__gxx_personality_v0 {
entry:
  tail call void @_ZN7Imf_3_210CompressorC2ERKNS_6HeaderE(ptr noundef nonnull align 8 dereferenceable(16) %this, ptr noundef nonnull align 1 %hdr)
  store ptr getelementptr inbounds ({ [10 x ptr] }, ptr @_ZTVN7Imf_3_213RleCompressorE, i64 0, i32 0, i64 2), ptr %this, align 8
  %_maxScanLineSize = getelementptr inbounds i8, ptr %this, i64 16
  %conv = trunc i64 %maxScanLineSize to i32
  store i32 %conv, ptr %_maxScanLineSize, align 8
  %_tmpBuffer = getelementptr inbounds i8, ptr %this, i64 24
  %cmp = icmp ugt i64 %maxScanLineSize, 2147483647
  tail call void @llvm.memset.p0.i64(ptr noundef nonnull align 8 dereferenceable(16) %_tmpBuffer, i8 0, i64 16, i1 false)
  br i1 %cmp, label %if.then, label %if.end

if.then:                                          ; preds = %entry
  %exception = tail call ptr @__cxa_allocate_exception(i64 72) #10
  invoke void @_ZN7Iex_3_211OverflowExcC1EPKc(ptr noundef nonnull align 8 dereferenceable(72) %exception, ptr noundef nonnull @.str)
          to label %invoke.cont unwind label %lpad

invoke.cont:                                      ; preds = %if.then
  invoke void @__cxa_throw(ptr nonnull %exception, ptr nonnull @_ZTIN7Iex_3_211OverflowExcE, ptr nonnull @_ZN7Iex_3_211OverflowExcD1Ev) #11
          to label %unreachable unwind label %lpad3

lpad:                                             ; preds = %if.then
  %0 = landingpad { ptr, i32 }
          cleanup
  tail call void @__cxa_free_exception(ptr %exception) #10
  br label %ehcleanup

lpad3:                                            ; preds = %invoke.cont4, %if.end, %invoke.cont
  %1 = landingpad { ptr, i32 }
          cleanup
  br label %ehcleanup

if.end:                                           ; preds = %entry
  %call5 = invoke noalias noundef nonnull ptr @_Znam(i64 noundef %maxScanLineSize) #12
          to label %invoke.cont4 unwind label %lpad3

invoke.cont4:                                     ; preds = %if.end
  store ptr %call5, ptr %_tmpBuffer, align 8
  %mul.i = mul nuw nsw i64 %maxScanLineSize, 3
  %div4 = lshr i64 %mul.i, 1
  %call10 = invoke noalias noundef nonnull ptr @_Znam(i64 noundef %div4) #12
          to label %invoke.cont9 unwind label %lpad3

invoke.cont9:                                     ; preds = %invoke.cont4
  %_outBuffer = getelementptr inbounds i8, ptr %this, i64 32
  store ptr %call10, ptr %_outBuffer, align 8
  ret void

ehcleanup:                                        ; preds = %lpad3, %lpad
  %.pn = phi { ptr, i32 } [ %0, %lpad ], [ %1, %lpad3 ]
  tail call void @_ZN7Imf_3_210CompressorD2Ev(ptr noundef nonnull align 8 dereferenceable(16) %this) #10
  resume { ptr, i32 } %.pn

unreachable:                                      ; preds = %invoke.cont
  unreachable
}